target datalayout = "e-m:e-p270:32:32-p271:32:32-p272:64:64-i64:64-i128:128-f80:128-n8:16:32:64-S128"
target triple = "x86_64-pc-linux-gnu"

%struct.RedisModuleKey = type { ptr, ptr, ptr, ptr, ptr, i32, %union.anon }
%union.anon = type { %struct.anon }
%struct.anon = type { %struct.listTypeEntry, i64 }
%struct.listTypeEntry = type { ptr, ptr, %struct.quicklistEntry }
%struct.quicklistEntry = type { ptr, ptr, ptr, ptr, i64, i64, i32 }
%struct.redisObject = type { i32, i32, ptr }
%struct.anon.0 = type { i32, %struct.zrangespec, %struct.zlexrangespec, i32, i32, ptr, i32 }
%struct.zrangespec = type { double, double, i32, i32 }
%struct.zlexrangespec = type { ptr, ptr, i32, i32 }
%struct.zskiplistNode = type { ptr, double, ptr, [0 x %struct.zskiplistLevel] }
%struct.zskiplistLevel = type { ptr, i64 }

@.str.2 = private unnamed_addr constant [9 x i8] c"module.c\00", align 1
@.str.47 = private unnamed_addr constant [26 x i8] c"Unsupported zset encoding\00", align 1

; Function Attrs: nounwind uwtable
define dso_local i32 @RM_ZsetRangeNext(ptr noundef %0) #0 {
  %2 = alloca i32, align 4
  %3 = alloca ptr, align 8
  %4 = alloca ptr, align 8
  %5 = alloca ptr, align 8
  %6 = alloca ptr, align 8
  %7 = alloca i32, align 4
  %8 = alloca ptr, align 8
  %9 = alloca double, align 8
  %10 = alloca ptr, align 8
  %11 = alloca ptr, align 8
  store ptr %0, ptr %3, align 8, !tbaa !64
  %12 = load ptr, ptr %3, align 8, !tbaa !64
  %13 = getelementptr inbounds nuw %struct.RedisModuleKey, ptr %12, i32 0, i32 3
  %14 = load ptr, ptr %13, align 8, !tbaa !68
  %15 = icmp ne ptr %14, null
  br i1 %15, label %16, label %23

16:                                               ; preds = %1
  %17 = load ptr, ptr %3, align 8, !tbaa !64
  %18 = getelementptr inbounds nuw %struct.RedisModuleKey, ptr %17, i32 0, i32 3
  %19 = load ptr, ptr %18, align 8, !tbaa !68
  %20 = load i32, ptr %19, align 8
  %21 = and i32 %20, 15
  %22 = icmp ne i32 %21, 3
  br i1 %22, label %23, label %24

23:                                               ; preds = %16, %1
  store i32 0, ptr %2, align 4
  br label %195

24:                                               ; preds = %16
  %25 = load ptr, ptr %3, align 8, !tbaa !64
  %26 = getelementptr inbounds nuw %struct.RedisModuleKey, ptr %25, i32 0, i32 6
  %27 = getelementptr inbounds nuw %struct.anon.0, ptr %26, i32 0, i32 0
  %28 = load i32, ptr %27, align 8, !tbaa !72
  %29 = icmp ne i32 %28, 0
  br i1 %29, label %30, label %36

30:                                               ; preds = %24
  %31 = load ptr, ptr %3, align 8, !tbaa !64
  %32 = getelementptr inbounds nuw %struct.RedisModuleKey, ptr %31, i32 0, i32 6
  %33 = getelementptr inbounds nuw %struct.anon.0, ptr %32, i32 0, i32 5
  %34 = load ptr, ptr %33, align 8, !tbaa !72
  %35 = icmp ne ptr %34, null
  br i1 %35, label %37, label %36

36:                                               ; preds = %30, %24
  store i32 0, ptr %2, align 4
  br label %195

37:                                               ; preds = %30
  %38 = load ptr, ptr %3, align 8, !tbaa !64
  %39 = getelementptr inbounds nuw %struct.RedisModuleKey, ptr %38, i32 0, i32 3
  %40 = load ptr, ptr %39, align 8, !tbaa !68
  %41 = load i32, ptr %40, align 8
  %42 = lshr i32 %41, 4
  %43 = and i32 %42, 15
  %44 = icmp eq i32 %43, 11
  br i1 %44, label %45, label %124

45:                                               ; preds = %37
  call void @llvm.lifetime.start.p0(i64 8, ptr %4) #15
  %46 = load ptr, ptr %3, align 8, !tbaa !64
  %47 = getelementptr inbounds nuw %struct.RedisModuleKey, ptr %46, i32 0, i32 3
  %48 = load ptr, ptr %47, align 8, !tbaa !68
  %49 = getelementptr inbounds nuw %struct.redisObject, ptr %48, i32 0, i32 2
  %50 = load ptr, ptr %49, align 8, !tbaa !313
  store ptr %50, ptr %4, align 8, !tbaa !11
  call void @llvm.lifetime.start.p0(i64 8, ptr %5) #15
  %51 = load ptr, ptr %3, align 8, !tbaa !64
  %52 = getelementptr inbounds nuw %struct.RedisModuleKey, ptr %51, i32 0, i32 6
  %53 = getelementptr inbounds nuw %struct.anon.0, ptr %52, i32 0, i32 5
  %54 = load ptr, ptr %53, align 8, !tbaa !72
  store ptr %54, ptr %5, align 8, !tbaa !11
  call void @llvm.lifetime.start.p0(i64 8, ptr %6) #15
  %55 = load ptr, ptr %4, align 8, !tbaa !11
  %56 = load ptr, ptr %5, align 8, !tbaa !11
  %57 = call ptr @lpNext(ptr noundef %55, ptr noundef %56)
  store ptr %57, ptr %6, align 8, !tbaa !11
  %58 = load ptr, ptr %6, align 8, !tbaa !11
  %59 = icmp ne ptr %58, null
  br i1 %59, label %60, label %64

60:                                               ; preds = %45
  %61 = load ptr, ptr %4, align 8, !tbaa !11
  %62 = load ptr, ptr %6, align 8, !tbaa !11
  %63 = call ptr @lpNext(ptr noundef %61, ptr noundef %62)
  store ptr %63, ptr %6, align 8, !tbaa !11
  br label %64

64:                                               ; preds = %60, %45
  %65 = load ptr, ptr %6, align 8, !tbaa !11
  %66 = icmp eq ptr %65, null
  br i1 %66, label %67, label %71

67:                                               ; preds = %64
  %68 = load ptr, ptr %3, align 8, !tbaa !64
  %69 = getelementptr inbounds nuw %struct.RedisModuleKey, ptr %68, i32 0, i32 6
  %70 = getelementptr inbounds nuw %struct.anon.0, ptr %69, i32 0, i32 6
  store i32 1, ptr %70, align 8, !tbaa !72
  store i32 0, ptr %2, align 4
  store i32 1, ptr %7, align 4
  br label %123

71:                                               ; preds = %64
  %72 = load ptr, ptr %3, align 8, !tbaa !64
  %73 = getelementptr inbounds nuw %struct.RedisModuleKey, ptr %72, i32 0, i32 6
  %74 = getelementptr inbounds nuw %struct.anon.0, ptr %73, i32 0, i32 0
  %75 = load i32, ptr %74, align 8, !tbaa !72
  %76 = icmp eq i32 %75, 2
  br i1 %76, label %77, label %99

77:                                               ; preds = %71
  call void @llvm.lifetime.start.p0(i64 8, ptr %8) #15
  %78 = load ptr, ptr %6, align 8, !tbaa !11
  store ptr %78, ptr %8, align 8, !tbaa !11
  %79 = load ptr, ptr %4, align 8, !tbaa !11
  %80 = load ptr, ptr %6, align 8, !tbaa !11
  %81 = call ptr @lpNext(ptr noundef %79, ptr noundef %80)
  store ptr %81, ptr %6, align 8, !tbaa !11
  call void @llvm.lifetime.start.p0(i64 8, ptr %9) #15
  %82 = load ptr, ptr %6, align 8, !tbaa !11
  %83 = call double @zzlGetScore(ptr noundef %82)
  store double %83, ptr %9, align 8, !tbaa !302
  %84 = load double, ptr %9, align 8, !tbaa !302
  %85 = load ptr, ptr %3, align 8, !tbaa !64
  %86 = getelementptr inbounds nuw %struct.RedisModuleKey, ptr %85, i32 0, i32 6
  %87 = getelementptr inbounds nuw %struct.anon.0, ptr %86, i32 0, i32 1
  %88 = call i32 @zslValueLteMax(double noundef %84, ptr noundef %87)
  %89 = icmp ne i32 %88, 0
  br i1 %89, label %94, label %90

90:                                               ; preds = %77
  %91 = load ptr, ptr %3, align 8, !tbaa !64
  %92 = getelementptr inbounds nuw %struct.RedisModuleKey, ptr %91, i32 0, i32 6
  %93 = getelementptr inbounds nuw %struct.anon.0, ptr %92, i32 0, i32 6
  store i32 1, ptr %93, align 8, !tbaa !72
  store i32 0, ptr %2, align 4
  store i32 1, ptr %7, align 4
  br label %96

94:                                               ; preds = %77
  %95 = load ptr, ptr %8, align 8, !tbaa !11
  store ptr %95, ptr %6, align 8, !tbaa !11
  store i32 0, ptr %7, align 4
  br label %96

96:                                               ; preds = %94, %90
  call void @llvm.lifetime.end.p0(i64 8, ptr %9) #15
  call void @llvm.lifetime.end.p0(i64 8, ptr %8) #15
  %97 = load i32, ptr %7, align 4
  switch i32 %97, label %123 [
    i32 0, label %98
  ]

98:                                               ; preds = %96
  br label %118

99:                                               ; preds = %71
  %100 = load ptr, ptr %3, align 8, !tbaa !64
  %101 = getelementptr inbounds nuw %struct.RedisModuleKey, ptr %100, i32 0, i32 6
  %102 = getelementptr inbounds nuw %struct.anon.0, ptr %101, i32 0, i32 0
  %103 = load i32, ptr %102, align 8, !tbaa !72
  %104 = icmp eq i32 %103, 1
  br i1 %104, label %105, label %117

105:                                              ; preds = %99
  %106 = load ptr, ptr %6, align 8, !tbaa !11
  %107 = load ptr, ptr %3, align 8, !tbaa !64
  %108 = getelementptr inbounds nuw %struct.RedisModuleKey, ptr %107, i32 0, i32 6
  %109 = getelementptr inbounds nuw %struct.anon.0, ptr %108, i32 0, i32 2
  %110 = call i32 @zzlLexValueLteMax(ptr noundef %106, ptr noundef %109)
  %111 = icmp ne i32 %110, 0
  br i1 %111, label %116, label %112

112:                                              ; preds = %105
  %113 = load ptr, ptr %3, align 8, !tbaa !64
  %114 = getelementptr inbounds nuw %struct.RedisModuleKey, ptr %113, i32 0, i32 6
  %115 = getelementptr inbounds nuw %struct.anon.0, ptr %114, i32 0, i32 6
  store i32 1, ptr %115, align 8, !tbaa !72
  store i32 0, ptr %2, align 4
  store i32 1, ptr %7, align 4
  br label %123

116:                                              ; preds = %105
  br label %117

117:                                              ; preds = %116, %99
  br label %118

118:                                              ; preds = %117, %98
  %119 = load ptr, ptr %6, align 8, !tbaa !11
  %120 = load ptr, ptr %3, align 8, !tbaa !64
  %121 = getelementptr inbounds nuw %struct.RedisModuleKey, ptr %120, i32 0, i32 6
  %122 = getelementptr inbounds nuw %struct.anon.0, ptr %121, i32 0, i32 5
  store ptr %119, ptr %122, align 8, !tbaa !72
  store i32 1, ptr %2, align 4
  store i32 1, ptr %7, align 4
  br label %123

123:                                              ; preds = %118, %112, %96, %67
  call void @llvm.lifetime.end.p0(i64 8, ptr %6) #15
  call void @llvm.lifetime.end.p0(i64 8, ptr %5) #15
  call void @llvm.lifetime.end.p0(i64 8, ptr %4) #15
  br label %195

124:                                              ; preds = %37
  %125 = load ptr, ptr %3, align 8, !tbaa !64
  %126 = getelementptr inbounds nuw %struct.RedisModuleKey, ptr %125, i32 0, i32 3
  %127 = load ptr, ptr %126, align 8, !tbaa !68
  %128 = load i32, ptr %127, align 8
  %129 = lshr i32 %128, 4
  %130 = and i32 %129, 15
  %131 = icmp eq i32 %130, 7
  br i1 %131, label %132, label %194

132:                                              ; preds = %124
  call void @llvm.lifetime.start.p0(i64 8, ptr %10) #15
  %133 = load ptr, ptr %3, align 8, !tbaa !64
  %134 = getelementptr inbounds nuw %struct.RedisModuleKey, ptr %133, i32 0, i32 6
  %135 = getelementptr inbounds nuw %struct.anon.0, ptr %134, i32 0, i32 5
  %136 = load ptr, ptr %135, align 8, !tbaa !72
  store ptr %136, ptr %10, align 8, !tbaa !414
  call void @llvm.lifetime.start.p0(i64 8, ptr %11) #15
  %137 = load ptr, ptr %10, align 8, !tbaa !414
  %138 = getelementptr inbounds nuw %struct.zskiplistNode, ptr %137, i32 0, i32 3
  %139 = getelementptr inbounds [0 x %struct.zskiplistLevel], ptr %138, i64 0, i64 0
  %140 = getelementptr inbounds nuw %struct.zskiplistLevel, ptr %139, i32 0, i32 0
  %141 = load ptr, ptr %140, align 8, !tbaa !416
  store ptr %141, ptr %11, align 8, !tbaa !414
  %142 = load ptr, ptr %11, align 8, !tbaa !414
  %143 = icmp eq ptr %142, null
  br i1 %143, label %144, label %148

144:                                              ; preds = %132
  %145 = load ptr, ptr %3, align 8, !tbaa !64
  %146 = getelementptr inbounds nuw %struct.RedisModuleKey, ptr %145, i32 0, i32 6
  %147 = getelementptr inbounds nuw %struct.anon.0, ptr %146, i32 0, i32 6
  store i32 1, ptr %147, align 8, !tbaa !72
  store i32 0, ptr %2, align 4
  store i32 1, ptr %7, align 4
  br label %193

148:                                              ; preds = %132
  %149 = load ptr, ptr %3, align 8, !tbaa !64
  %150 = getelementptr inbounds nuw %struct.RedisModuleKey, ptr %149, i32 0, i32 6
  %151 = getelementptr inbounds nuw %struct.anon.0, ptr %150, i32 0, i32 0
  %152 = load i32, ptr %151, align 8, !tbaa !72
  %153 = icmp eq i32 %152, 2
  br i1 %153, label %154, label %167

154:                                              ; preds = %148
  %155 = load ptr, ptr %11, align 8, !tbaa !414
  %156 = getelementptr inbounds nuw %struct.zskiplistNode, ptr %155, i32 0, i32 1
  %157 = load double, ptr %156, align 8, !tbaa !302
  %158 = load ptr, ptr %3, align 8, !tbaa !64
  %159 = getelementptr inbounds nuw %struct.RedisModuleKey, ptr %158, i32 0, i32 6
  %160 = getelementptr inbounds nuw %struct.anon.0, ptr %159, i32 0, i32 1
  %161 = call i32 @zslValueLteMax(double noundef %157, ptr noundef %160)
  %162 = icmp ne i32 %161, 0
  br i1 %162, label %167, label %163

163:                                              ; preds = %154
  %164 = load ptr, ptr %3, align 8, !tbaa !64
  %165 = getelementptr inbounds nuw %struct.RedisModuleKey, ptr %164, i32 0, i32 6
  %166 = getelementptr inbounds nuw %struct.anon.0, ptr %165, i32 0, i32 6
  store i32 1, ptr %166, align 8, !tbaa !72
  store i32 0, ptr %2, align 4
  store i32 1, ptr %7, align 4
  br label %193

167:                                              ; preds = %154, %148
  %168 = load ptr, ptr %3, align 8, !tbaa !64
  %169 = getelementptr inbounds nuw %struct.RedisModuleKey, ptr %168, i32 0, i32 6
  %170 = getelementptr inbounds nuw %struct.anon.0, ptr %169, i32 0, i32 0
  %171 = load i32, ptr %170, align 8, !tbaa !72
  %172 = icmp eq i32 %171, 1
  br i1 %172, label %173, label %187

173:                                              ; preds = %167
  %174 = load ptr, ptr %11, align 8, !tbaa !414
  %175 = getelementptr inbounds nuw %struct.zskiplistNode, ptr %174, i32 0, i32 0
  %176 = load ptr, ptr %175, align 8, !tbaa !11
  %177 = load ptr, ptr %3, align 8, !tbaa !64
  %178 = getelementptr inbounds nuw %struct.RedisModuleKey, ptr %177, i32 0, i32 6
  %179 = getelementptr inbounds nuw %struct.anon.0, ptr %178, i32 0, i32 2
  %180 = call i32 @zslLexValueLteMax(ptr noundef %176, ptr noundef %179)
  %181 = icmp ne i32 %180, 0
  br i1 %181, label %186, label %182

182:                                              ; preds = %173
  %183 = load ptr, ptr %3, align 8, !tbaa !64
  %184 = getelementptr inbounds nuw %struct.RedisModuleKey, ptr %183, i32 0, i32 6
  %185 = getelementptr inbounds nuw %struct.anon.0, ptr %184, i32 0, i32 6
  store i32 1, ptr %185, align 8, !tbaa !72
  store i32 0, ptr %2, align 4
  store i32 1, ptr %7, align 4
  br label %193

186:                                              ; preds = %173
  br label %187

187:                                              ; preds = %186, %167
  br label %188

188:                                              ; preds = %187
  %189 = load ptr, ptr %11, align 8, !tbaa !414
  %190 = load ptr, ptr %3, align 8, !tbaa !64
  %191 = getelementptr inbounds nuw %struct.RedisModuleKey, ptr %190, i32 0, i32 6
  %192 = getelementptr inbounds nuw %struct.anon.0, ptr %191, i32 0, i32 5
  store ptr %189, ptr %192, align 8, !tbaa !72
  store i32 1, ptr %2, align 4
  store i32 1, ptr %7, align 4
  br label %193

193:                                              ; preds = %188, %182, %163, %144
  call void @llvm.lifetime.end.p0(i64 8, ptr %11) #15
  call void @llvm.lifetime.end.p0(i64 8, ptr %10) #15
  br label %195

194:                                              ; preds = %124
  call void (ptr, i32, ptr, ...) @_serverPanic(ptr noundef @.str.2, i32 noundef 5127, ptr noundef @.str.47)
  call void @abort() #18
  unreachable

195:                                              ; preds = %193, %123, %36, %23
  %196 = load i32, ptr %2, align 4
  ret i32 %196
}