; Function Attrs: nounwind uwtable
define dso_local range(i32 0, 2) i32 @RM_ZsetRangeNext(ptr noundef %0) #0 {
  %2 = getelementptr inbounds nuw i8, ptr %0, i64 24
  %3 = load ptr, ptr %2, align 8, !tbaa !57
  %.not = icmp eq ptr %3, null
  br i1 %.not, label %64, label %4

4:                                                ; preds = %1
  %5 = load i32, ptr %3, align 8
  %6 = and i32 %5, 15
  %.not57 = icmp eq i32 %6, 3
  br i1 %.not57, label %7, label %64

7:                                                ; preds = %4
  %8 = getelementptr inbounds nuw i8, ptr %0, i64 48
  %9 = load i32, ptr %8, align 8, !tbaa !60
  %.not58 = icmp eq i32 %9, 0
  br i1 %.not58, label %64, label %10

10:                                               ; preds = %7
  %11 = getelementptr inbounds nuw i8, ptr %0, i64 112
  %12 = load ptr, ptr %11, align 8, !tbaa !60
  %.not59 = icmp eq ptr %12, null
  br i1 %.not59, label %64, label %13

13:                                               ; preds = %10
  %14 = lshr i32 %5, 4
  %15 = and i32 %14, 15
  switch i32 %15, label %63 [
    i32 11, label %16
    i32 7, label %38
  ]

16:                                               ; preds = %13
  %17 = getelementptr inbounds nuw i8, ptr %3, i64 8
  %18 = load ptr, ptr %17, align 8, !tbaa !269
  %19 = tail call ptr @lpNext(ptr noundef %18, ptr noundef nonnull %12) #35
  %.not62 = icmp eq ptr %19, null
  br i1 %.not62, label %.thread, label %20

20:                                               ; preds = %16
  %21 = tail call ptr @lpNext(ptr noundef %18, ptr noundef nonnull %19) #35
  %22 = icmp eq ptr %21, null
  br i1 %22, label %.thread, label %24

.thread:                                          ; preds = %16, %20
  %23 = getelementptr inbounds nuw i8, ptr %0, i64 120
  store i32 1, ptr %23, align 8, !tbaa !60
  br label %64

24:                                               ; preds = %20
  %25 = load i32, ptr %8, align 8, !tbaa !60
  switch i32 %25, label %37 [
    i32 2, label %26
    i32 1, label %32
  ]

26:                                               ; preds = %24
  %27 = tail call ptr @lpNext(ptr noundef %18, ptr noundef nonnull %21) #35
  %28 = tail call double @zzlGetScore(ptr noundef %27) #35
  %29 = getelementptr inbounds nuw i8, ptr %0, i64 56
  %30 = tail call i32 @zslValueLteMax(double noundef %28, ptr noundef nonnull %29) #35
  %.not64.not = icmp eq i32 %30, 0
  br i1 %.not64.not, label %.thread66, label %37

.thread66:                                        ; preds = %26
  %31 = getelementptr inbounds nuw i8, ptr %0, i64 120
  store i32 1, ptr %31, align 8, !tbaa !60
  br label %64

32:                                               ; preds = %24
  %33 = getelementptr inbounds nuw i8, ptr %0, i64 80
  %34 = tail call i32 @zzlLexValueLteMax(ptr noundef nonnull %21, ptr noundef nonnull %33) #35
  %.not63 = icmp eq i32 %34, 0
  br i1 %.not63, label %35, label %37

35:                                               ; preds = %32
  %36 = getelementptr inbounds nuw i8, ptr %0, i64 120
  store i32 1, ptr %36, align 8, !tbaa !60
  br label %64

37:                                               ; preds = %26, %24, %32
  store ptr %21, ptr %11, align 8, !tbaa !60
  br label %64

38:                                               ; preds = %13
  %39 = getelementptr inbounds nuw i8, ptr %12, i64 24
  %40 = load ptr, ptr %39, align 8, !tbaa !345
  %41 = icmp eq ptr %40, null
  br i1 %41, label %42, label %44

42:                                               ; preds = %38
  %43 = getelementptr inbounds nuw i8, ptr %0, i64 120
  store i32 1, ptr %43, align 8, !tbaa !60
  br label %64

44:                                               ; preds = %38
  %45 = icmp eq i32 %9, 2
  br i1 %45, label %46, label %53

46:                                               ; preds = %44
  %47 = getelementptr inbounds nuw i8, ptr %40, i64 8
  %48 = load double, ptr %47, align 8, !tbaa !344
  %49 = getelementptr inbounds nuw i8, ptr %0, i64 56
  %50 = tail call i32 @zslValueLteMax(double noundef %48, ptr noundef nonnull %49) #35
  %.not60 = icmp eq i32 %50, 0
  br i1 %.not60, label %51, label %._crit_edge

._crit_edge:                                      ; preds = %46
  %.pre = load i32, ptr %8, align 8, !tbaa !60
  br label %53

51:                                               ; preds = %46
  %52 = getelementptr inbounds nuw i8, ptr %0, i64 120
  store i32 1, ptr %52, align 8, !tbaa !60
  br label %64

53:                                               ; preds = %._crit_edge, %44
  %54 = phi i32 [ %.pre, %._crit_edge ], [ %9, %44 ]
  %55 = icmp eq i32 %54, 1
  br i1 %55, label %56, label %62

56:                                               ; preds = %53
  %57 = load ptr, ptr %40, align 8, !tbaa !154
  %58 = getelementptr inbounds nuw i8, ptr %0, i64 80
  %59 = tail call i32 @zslLexValueLteMax(ptr noundef %57, ptr noundef nonnull %58) #35
  %.not61 = icmp eq i32 %59, 0
  br i1 %.not61, label %60, label %62

60:                                               ; preds = %56
  %61 = getelementptr inbounds nuw i8, ptr %0, i64 120
  store i32 1, ptr %61, align 8, !tbaa !60
  br label %64

62:                                               ; preds = %53, %56
  store ptr %40, ptr %11, align 8, !tbaa !60
  br label %64

63:                                               ; preds = %13
  tail call void (ptr, i32, ptr, ...) @_serverPanic(ptr noundef nonnull @.str.2, i32 noundef 5127, ptr noundef nonnull @.str.47) #35
  tail call void @abort() #38
  unreachable

64:                                               ; preds = %.thread66, %42, %51, %60, %62, %.thread, %35, %37, %7, %10, %1, %4
  %.0 = phi i32 [ 0, %4 ], [ 0, %1 ], [ 0, %10 ], [ 0, %7 ], [ 0, %.thread ], [ 1, %37 ], [ 0, %35 ], [ 0, %42 ], [ 1, %62 ], [ 0, %60 ], [ 0, %51 ], [ 0, %.thread66 ]
  ret i32 %.0
}